; Function Attrs: mustprogress uwtable
define dso_local noundef zeroext i1 @_Z10isCompletePKc(ptr noundef %0) local_unnamed_addr #8 personality ptr @__gxx_personality_v0 {
  %2 = alloca %"class.Imf_3_4::InputFile", align 8
  call void @llvm.lifetime.start.p0(i64 32, ptr nonnull %2) #36
  %3 = tail call noundef i32 @_ZN7Imf_3_417globalThreadCountEv()
  call void @_ZN7Imf_3_49InputFileC1EPKci(ptr noundef nonnull align 8 dereferenceable(32) %2, ptr noundef %0, i32 noundef %3)
  %4 = invoke noundef zeroext i1 @_ZNK7Imf_3_49InputFile10isCompleteEv(ptr noundef nonnull align 8 dereferenceable(32) %2)
          to label %5 unwind label %52

5:                                                ; preds = %1
  %6 = getelementptr inbounds nuw i8, ptr %2, i64 24
  %7 = load ptr, ptr %6, align 8, !tbaa !100
  %.not.i.i.i = icmp eq ptr %7, null
  br i1 %.not.i.i.i, label %_ZNSt12__shared_ptrIN7Imf_3_49InputFile4DataELN9__gnu_cxx12_Lock_policyE2EED2Ev.exit.i, label %8

8:                                                ; preds = %5
  %9 = getelementptr inbounds nuw i8, ptr %7, i64 8
  %10 = load atomic i64, ptr %9 acquire, align 8
  %11 = icmp eq i64 %10, 4294967297
  %12 = trunc i64 %10 to i32
  br i1 %11, label %13, label %21

13:                                               ; preds = %8
  store i32 0, ptr %9, align 8, !tbaa !103
  %14 = getelementptr inbounds nuw i8, ptr %7, i64 12
  store i32 0, ptr %14, align 4, !tbaa !105
  %15 = load ptr, ptr %7, align 8, !tbaa !15
  %16 = getelementptr inbounds nuw i8, ptr %15, i64 16
  %17 = load ptr, ptr %16, align 8
  call void %17(ptr noundef nonnull align 8 dereferenceable(16) %7) #36
  %18 = load ptr, ptr %7, align 8, !tbaa !15
  %19 = getelementptr inbounds nuw i8, ptr %18, i64 24
  %20 = load ptr, ptr %19, align 8
  call void %20(ptr noundef nonnull align 8 dereferenceable(16) %7) #36
  br label %_ZNSt12__shared_ptrIN7Imf_3_49InputFile4DataELN9__gnu_cxx12_Lock_policyE2EED2Ev.exit.i

21:                                               ; preds = %8
  %22 = load i8, ptr @__libc_single_threaded, align 1, !tbaa !39
  %.not.i.i.i.i = icmp eq i8 %22, 0
  br i1 %.not.i.i.i.i, label %25, label %23

23:                                               ; preds = %21
  %24 = add nsw i32 %12, -1
  store i32 %24, ptr %9, align 4, !tbaa !59
  br label %_ZN9__gnu_cxx27__exchange_and_add_dispatchEPii.exit.i.i.i.i

25:                                               ; preds = %21
  %26 = atomicrmw volatile add ptr %9, i32 -1 acq_rel, align 4
  br label %_ZN9__gnu_cxx27__exchange_and_add_dispatchEPii.exit.i.i.i.i

_ZN9__gnu_cxx27__exchange_and_add_dispatchEPii.exit.i.i.i.i: ; preds = %25, %23
  %.0.i.i.i.i.i = phi i32 [ %12, %23 ], [ %26, %25 ]
  %27 = icmp eq i32 %.0.i.i.i.i.i, 1
  br i1 %27, label %28, label %_ZNSt12__shared_ptrIN7Imf_3_49InputFile4DataELN9__gnu_cxx12_Lock_policyE2EED2Ev.exit.i, !prof !106

28:                                               ; preds = %_ZN9__gnu_cxx27__exchange_and_add_dispatchEPii.exit.i.i.i.i
  call void @_ZNSt16_Sp_counted_baseILN9__gnu_cxx12_Lock_policyE2EE24_M_release_last_use_coldEv(ptr noundef nonnull align 8 dereferenceable(16) %7) #36
  br label %_ZNSt12__shared_ptrIN7Imf_3_49InputFile4DataELN9__gnu_cxx12_Lock_policyE2EED2Ev.exit.i

_ZNSt12__shared_ptrIN7Imf_3_49InputFile4DataELN9__gnu_cxx12_Lock_policyE2EED2Ev.exit.i: ; preds = %28, %_ZN9__gnu_cxx27__exchange_and_add_dispatchEPii.exit.i.i.i.i, %13, %5
  %29 = getelementptr inbounds nuw i8, ptr %2, i64 8
  %30 = load ptr, ptr %29, align 8, !tbaa !100
  %.not.i.i.i1.i = icmp eq ptr %30, null
  br i1 %.not.i.i.i1.i, label %_ZN7Imf_3_49InputFileD2Ev.exit, label %31

31:                                               ; preds = %_ZNSt12__shared_ptrIN7Imf_3_49InputFile4DataELN9__gnu_cxx12_Lock_policyE2EED2Ev.exit.i
  %32 = getelementptr inbounds nuw i8, ptr %30, i64 8
  %33 = load atomic i64, ptr %32 acquire, align 8
  %34 = icmp eq i64 %33, 4294967297
  %35 = trunc i64 %33 to i32
  br i1 %34, label %36, label %44

36:                                               ; preds = %31
  store i32 0, ptr %32, align 8, !tbaa !103
  %37 = getelementptr inbounds nuw i8, ptr %30, i64 12
  store i32 0, ptr %37, align 4, !tbaa !105
  %38 = load ptr, ptr %30, align 8, !tbaa !15
  %39 = getelementptr inbounds nuw i8, ptr %38, i64 16
  %40 = load ptr, ptr %39, align 8
  call void %40(ptr noundef nonnull align 8 dereferenceable(16) %30) #36
  %41 = load ptr, ptr %30, align 8, !tbaa !15
  %42 = getelementptr inbounds nuw i8, ptr %41, i64 24
  %43 = load ptr, ptr %42, align 8
  call void %43(ptr noundef nonnull align 8 dereferenceable(16) %30) #36
  br label %_ZN7Imf_3_49InputFileD2Ev.exit

44:                                               ; preds = %31
  %45 = load i8, ptr @__libc_single_threaded, align 1, !tbaa !39
  %.not.i.i.i.i.i = icmp eq i8 %45, 0
  br i1 %.not.i.i.i.i.i, label %48, label %46

46:                                               ; preds = %44
  %47 = add nsw i32 %35, -1
  store i32 %47, ptr %32, align 4, !tbaa !59
  br label %_ZN9__gnu_cxx27__exchange_and_add_dispatchEPii.exit.i.i.i.i.i

48:                                               ; preds = %44
  %49 = atomicrmw volatile add ptr %32, i32 -1 acq_rel, align 4
  br label %_ZN9__gnu_cxx27__exchange_and_add_dispatchEPii.exit.i.i.i.i.i

_ZN9__gnu_cxx27__exchange_and_add_dispatchEPii.exit.i.i.i.i.i: ; preds = %48, %46
  %.0.i.i.i.i.i.i = phi i32 [ %35, %46 ], [ %49, %48 ]
  %50 = icmp eq i32 %.0.i.i.i.i.i.i, 1
  br i1 %50, label %51, label %_ZN7Imf_3_49InputFileD2Ev.exit, !prof !106

51:                                               ; preds = %_ZN9__gnu_cxx27__exchange_and_add_dispatchEPii.exit.i.i.i.i.i
  call void @_ZNSt16_Sp_counted_baseILN9__gnu_cxx12_Lock_policyE2EE24_M_release_last_use_coldEv(ptr noundef nonnull align 8 dereferenceable(16) %30) #36
  br label %_ZN7Imf_3_49InputFileD2Ev.exit

_ZN7Imf_3_49InputFileD2Ev.exit:                   ; preds = %_ZNSt12__shared_ptrIN7Imf_3_49InputFile4DataELN9__gnu_cxx12_Lock_policyE2EED2Ev.exit.i, %36, %_ZN9__gnu_cxx27__exchange_and_add_dispatchEPii.exit.i.i.i.i.i, %51
  call void @llvm.lifetime.end.p0(i64 32, ptr nonnull %2) #36
  ret i1 %4

52:                                               ; preds = %1
  %53 = landingpad { ptr, i32 }
          cleanup
  call void @_ZN7Imf_3_49InputFileD2Ev(ptr noundef nonnull align 8 dereferenceable(32) %2) #36
  call void @llvm.lifetime.end.p0(i64 32, ptr nonnull %2) #36
  resume { ptr, i32 } %53
}